target datalayout = "e-m:e-p270:32:32-p271:32:32-p272:64:64-i64:64-i128:128-f80:128-n8:16:32:64-S128"
target triple = "x86_64-pc-linux-gnu"

%struct.lua_State = type { i8, i8, i8, i8, i8, i8, i8, ptr, ptr, ptr, ptr, ptr, ptr, ptr, ptr, i32, i32, i16, i16, i32, ptr, ptr, ptr, ptr, ptr }

; Function Attrs: mustprogress nounwind uwtable
define dso_local noundef i32 @_Z15lua_isyieldableP9lua_State(ptr noundef %0) #1 {
  %2 = alloca ptr, align 8
  store ptr %0, ptr %2, align 8, !tbaa !20
  %3 = load ptr, ptr %2, align 8, !tbaa !20
  %4 = getelementptr inbounds nuw %struct.lua_State, ptr %3, i32 0, i32 17
  %5 = load i16, ptr %4, align 8, !tbaa !72
  %6 = zext i16 %5 to i32
  %7 = load ptr, ptr %2, align 8, !tbaa !20
  %8 = getelementptr inbounds nuw %struct.lua_State, ptr %7, i32 0, i32 18
  %9 = load i16, ptr %8, align 2, !tbaa !91
  %10 = zext i16 %9 to i32
  %11 = icmp sle i32 %6, %10
  %12 = zext i1 %11 to i32
  ret i32 %12
}