; Function Attrs: mustprogress nofree norecurse nosync nounwind willreturn memory(argmem: read) uwtable
define dso_local noundef range(i32 0, 2) i32 @_Z15lua_isyieldableP9lua_State(ptr noundef readonly captures(none) %0) local_unnamed_addr #9 {
  %2 = getelementptr inbounds nuw i8, ptr %0, i64 80
  %3 = load i16, ptr %2, align 8, !tbaa !55
  %4 = getelementptr inbounds nuw i8, ptr %0, i64 82
  %5 = load i16, ptr %4, align 2, !tbaa !73
  %6 = icmp ule i16 %3, %5
  %7 = zext i1 %6 to i32
  ret i32 %7
}